(lp0
(dp1
S'rows'
p2
(lp3
(dp4
S'title'
p5
S'January 2003'
p6
sS'am'
p7
S'inspectors'
p8
sS'pm'
p9
S'HIH'
p10
sa(dp11
g5
S'February 2003'
p12
sg7
S'Blix'
p13
sg9
S'Warne'
p14
sa(dp15
g5
S'March 2003'
p16
sg7
S'Basra'
p17
sg9
S'Baghdad'
p18
sa(dp19
g5
S'April 2003'
p20
sg7
S'SARS'
p21
sg9
S'Baghdad'
p22
sa(dp23
g5
S'May 2003'
p24
sg7
S'Hollingworth'
p25
sg9
S'Hollingworth'
p26
sa(dp27
g5
S'June 2003'
p28
sg7
S'Map'
p29
sg9
S'ONA'
p30
sa(dp31
g5
S'July 2003'
p32
sg7
S'Solomons'
p33
sg9
S'Solomon'
p34
sa(dp35
g5
S'August 2003'
p36
sg7
S'Hambali'
p37
sg9
S'Amrozi'
p38
sa(dp39
g5
S'September 2003'
p40
sg7
S'sheep'
p41
sg9
S'sheep'
p42
sa(dp43
g5
S'October 2003'
p44
sg7
S'Mahathir'
p45
sg9
S'Cormo'
p46
sa(dp47
g5
S'November 2003'
p48
sg7
S'Melville'
p49
sg9
S'Melville'
p50
sa(dp51
g5
S'December 2003'
p52
sg7
S'Saddam'
p53
sg9
S'Latham'
p54
sasS'year'
p55
I2003
sa(dp56
g2
(lp57
(dp58
g5
S'January 2004'
p59
sg7
S'Waugh'
p60
sg9
S'Hookes'
p61
sa(dp62
g5
S'February 2004'
p63
sg7
S'Latham'
p64
sg9
S'Latham'
p65
sa(dp66
g5
S'March 2004'
p67
sg7
S'Bulldogs'
p68
sg9
S'Bulldogs'
p69
sa(dp70
g5
S'April 2004'
p71
sg7
S'Fallujah'
p72
sg9
S'Flint'
p73
sa(dp74
g5
S'May 2004'
p75
sg7
S'Mitsubishi'
p76
sg9
S'Roche'
p77
sa(dp78
g5
S'June 2004'
p79
sg7
S'Roche'
p80
sg9
S'Roche'
p81
sa(dp82
g5
S'July 2004'
p83
sg7
S'Eadie'
p84
sg9
S'Latham'
p85
sa(dp86
g5
S'August 2004'
p87
sg7
S'Butler'
p88
sg9
S'Butler'
p89
sa(dp90
g5
S'September 2004'
p91
sg7
S'Latham'
p92
sg9
S'Latham'
p93
sa(dp94
g5
S'October 2004'
p95
sg7
S'Kerry'
p96
sg9
S'Latham'
p97
sa(dp98
g5
S'November 2004'
p99
sg7
S'Fallujah'
p100
sg9
S'Fallujah'
p101
sa(dp102
g5
S'December 2004'
p103
sg7
S'tsunamis'
p104
sg9
S'Sounds'
p105
sasg55
I2004
sa(dp106
g2
(lp107
(dp108
g5
S'January 2005'
p109
sg7
S'tsunami'
p110
sg9
S'Aceh'
p111
sa(dp112
g5
S'February 2005'
p113
sg7
S'Rau'
p114
sg9
S'Rau'
p115
sa(dp116
g5
S'March 2005'
p117
sg7
S'Lightfoot'
p118
sg9
S'secession'
p119
sa(dp120
g5
S'April 2005'
p121
sg7
S'Pope'
p122
sg9
S'Pope'
p123
sa(dp124
g5
S'May 2005'
p125
sg7
S'Wood'
p126
sg9
S'Solon'
p127
sa(dp128
g5
S'June 2005'
p129
sg7
S'Wood'
p130
sg9
S'Lane'
p131
sa(dp132
g5
S'July 2005'
p133
sg7
S'Vizard'
p134
sg9
S'Vizard'
p135
sa(dp136
g5
S'August 2005'
p137
sg7
S'settlers'
p138
sg9
S'Editor'
p139
sa(dp140
g5
S'September 2005'
p141
sg7
S'Rita'
p142
sg9
S'Orleans'
p143
sa(dp144
g5
S'October 2005'
p145
sg7
S'flu'
p146
sg9
S'Nguyen'
p147
sa(dp148
g5
S'November 2005'
p149
sg7
S'Nguyen'
p150
sg9
S'Nguyen'
p151
sa(dp152
g5
S'December 2005'
p153
sg7
S'Nguyen'
p154
sg9
S'Nguyen'
p155
sasg55
I2005
sa(dp156
g2
(lp157
(dp158
g5
S'January 2006'
p159
sg7
S'Baghdatis'
p160
sg9
S'AWB'
p161
sa(dp162
g5
S'February 2006'
p163
sg7
S'AWB'
p164
sg9
S'AWB'
p165
sa(dp166
g5
S'March 2006'
p167
sg7
S'Games'
p168
sg9
S'AWB'
p169
sa(dp170
g5
S'April 2006'
p171
sg7
S'ANZAC'
p172
sg9
S'Rini'
p173
sa(dp174
g5
S'May 2006'
p175
sg7
S'Beaconsfield'
p176
sg9
S'Beaconsfield'
p177
sa(dp178
g5
S'June 2006'
p179
sg7
S'Socceroos'
p180
sg9
S'Alkatiri'
p181
sa(dp182
g5
S'July 2006'
p183
sg7
S'Lebanon'
p184
sg9
S'Lebanon'
p185
sa(dp186
g5
S'August 2006'
p187
sg7
S'Lebanon'
p188
sg9
S'Lebanon'
p189
sa(dp190
g5
S'September 2006'
p191
sg7
S'Title'
p192
sg9
S'Vizard'
p193
sa(dp194
g5
S'October 2006'
p195
sg7
S'Hilali'
p196
sg9
S'Hilali'
p197
sa(dp198
g5
S'November 2006'
p199
sg7
S'Gemayel'
p200
sg9
S'Brimble'
p201
sa(dp202
g5
S'December 2006'
p203
sg7
S'Fiji'
p204
sg9
S'Palm'
p205
sasg55
I2006
sa(dp206
g2
(lp207
(dp208
g5
S'January 2007'
p209
sg7
S'Open'
p210
sg9
S'Chapman'
p211
sa(dp212
g5
S'February 2007'
p213
sg7
S'Jovicic'
p214
sg9
S'Woolrich'
p215
sa(dp216
g5
S'March 2007'
p217
sg7
S'Hicks'
p218
sg9
S'Santoro'
p219
sa(dp220
g5
S'April 2007'
p221
sg7
S'Billings'
p222
sg9
S'Woolrich'
p223
sa(dp224
g5
S'May 2007'
p225
sg7
S'volumes'
p226
sg9
S'Woolrich'
p227
sa(dp228
g5
S'June 2007'
p229
sg7
S'Mokbel'
p230
sg9
S'Byrne'
p231
sa(dp232
g5
S'July 2007'
p233
sg7
S'Haneef'
p234
sg9
S'Haneef'
p235
sa(dp236
g5
S'August 2007'
p237
sg7
S'Haneef'
p238
sg9
S'Woolrich'
p239
sa(dp240
g5
S'September 2007'
p241
sg7
S'APEC'
p242
sg9
S'APEC'
p243
sa(dp244
g5
S'October 2007'
p245
sg7
S'Uhlmann'
p246
sg9
S'Glanville'
p247
sa(dp248
g5
S'November 2007'
p249
sg7
S'pamphlet'
p250
sg9
S'Banton'
p251
sa(dp252
g5
S'December 2007'
p253
sg7
S'Bhutto'
p254
sg9
S'Glanville'
p255
sasg55
I2007
sa(dp256
g2
(lp257
(dp258
g5
S'January 2008'
p259
sg7
S'Suharto'
p260
sg9
S'Bucknor'
p261
sa(dp262
g5
S'February 2008'
p263
sg7
S'Kosovo'
p264
sg9
S'Kovco'
p265
sa(dp266
g5
S'March 2008'
p267
sg7
S'Tibetan'
p268
sg9
S'Glanville'
p269
sa(dp270
g5
S'April 2008'
p271
sg7
S'torch'
p272
sg9
S'torch'
p273
sa(dp274
g5
S'May 2008'
p275
sg7
S'Nargis'
p276
sg9
S'Nargis'
p277
sa(dp278
g5
S'June 2008'
p279
sg7
S'FuelWatch'
p280
sg9
S'Belinda'
p281
sa(dp282
g5
S'July 2008'
p283
sg7
S'Karadzic'
p284
sg9
S'WYD'
p285
sa(dp286
g5
S'August 2008'
p287
sg7
S'Georgian'
p288
sg9
S'Georgia'
p289
sa(dp290
g5
S'September 2008'
p291
sg7
S'Gustav'
p292
sg9
S'Palin'
p293
sa(dp294
g5
S'October 2008'
p295
sg7
S'Lapthorne'
p296
sg9
S'McCain'
p297
sa(dp298
g5
S'November 2008'
p299
sg7
S'Mumbai'
p300
sg9
S'Learning'
p301
sa(dp302
g5
S'December 2008'
p303
sg7
S'cholera'
p304
sg9
S'Lexi'
p305
sasg55
I2008
sa(dp306
g2
(lp307
(dp308
g5
S'January 2009'
p309
sg7
S'Dokic'
p310
sg9
S'inauguration'
p311
sa(dp312
g5
S'February 2009'
p313
sg7
S'stimulus'
p314
sg9
S'stimulus'
p315
sa(dp316
g5
S'March 2009'
p317
sg7
S'Bligh'
p318
sg9
S'Lannin'
p319
sa(dp320
g5
S'April 2009'
p321
sg7
S'swine'
p322
sg9
S'swine'
p323
sa(dp324
g5
S'May 2009'
p325
sg7
S'swine'
p326
sg9
S'swine'
p327
sa(dp328
g5
S'June 2009'
p329
sg7
S'swine'
p330
sg9
S'swine'
p331
sa(dp332
g5
S'July 2009'
p333
sg7
S'Hu'
p334
sg9
S'Nuttall'
p335
sa(dp336
g5
S'August 2009'
p337
sg7
S'ETS'
p338
sg9
S'Uighur'
p339
sa(dp340
g5
S'September 2009'
p341
sg7
S'Austrade'
p342
sg9
S'Samoa'
p343
sa(dp344
g5
S'October 2009'
p345
sg7
S'Viking'
p346
sg9
S'Viking'
p347
sa(dp348
g5
S'November 2009'
p349
sg7
S'Viking'
p350
sg9
S'ETS'
p351
sa(dp352
g5
S'December 2009'
p353
sg7
S'Copenhagen'
p354
sg9
S'Copenhagen'
p355
sasg55
I2009
sa(dp356
g2
(lp357
(dp358
g5
S'January 2010'
p359
sg7
S'Haiti'
p360
sg9
S'Haiti'
p361
sa(dp362
g5
S'February 2010'
p363
sg7
S'insulation'
p364
sg9
S'insulation'
p365
sa(dp366
g5
S'March 2010'
p367
sg7
S'Hodgman'
p368
sg9
S'Bain'
p369
sa(dp370
g5
S'April 2010'
p371
sg7
S'Goldman'
p372
sg9
S'Bain'
p373
sa(dp374
g5
S'May 2010'
p375
sg7
S'profits'
p376
sg9
S'Alle'
p377
sa(dp378
g5
S'June 2010'
p379
sg7
S'BP'
p380
sg9
S'Alle'
p381
sa(dp382
g5
S'July 2010'
p383
sg7
S'Gillard'
p384
sg9
S'Alle'
p385
sa(dp386
g5
S'August 2010'
p387
sg7
S'independents'
p388
sg9
S'independents'
p389
sa(dp390
g5
S'September 2010'
p391
sg7
S'Games'
p392
sg9
S'Yuendumu'
p393
sa(dp394
g5
S'October 2010'
p395
sg7
S'Games'
p396
sg9
S'Chilean'
p397
sa(dp398
g5
S'November 2010'
p399
sg7
S'Brumby'
p400
sg9
S'Pike'
p401
sa(dp402
g5
S'December 2010'
p403
sg7
S'Assange'
p404
sg9
S'WikiLeaks'
p405
sasg55
I2010
sa(dp406
g2
(lp407
(dp408
g5
S'January 2011'
p409
sg7
S'flood'
p410
sg9
S'flood'
p411
sa(dp412
g5
S'February 2011'
p413
sg7
S'Yasi'
p414
sg9
S''
p415
sa(dp416
g5
S'March 2011'
p417
sg7
S'Libya'
p418
sg9
S'Gaddafi'
p419
sa(dp420
g5
S'April 2011'
p421
sg7
S'Ivory'
p422
sg9
g415
sa(dp423
g5
S'May 2011'
p424
sg7
S'Laden'
p425
sg9
S'Laden'
p426
sa(dp427
g5
S'June 2011'
p428
sg7
S'cattle'
p429
sg9
S'cattle'
p430
sa(dp431
g5
S'July 2011'
p432
sg7
S'hacking'
p433
sg9
S'carbon'
p434
sa(dp435
g5
S'August 2011'
p436
sg7
S'Tripoli'
p437
sg9
S'Tripoli'
p438
sa(dp439
g5
S'September 2011'
p440
sg7
S'Migration'
p441
sg9
S'penicillin'
p442
sa(dp443
g5
S'October 2011'
p444
sg7
S'Gaddafi'
p445
sg9
S'CHOGM'
p446
sa(dp447
g5
S'November 2011'
p448
sg7
S'Roebuck'
p449
sg9
S'euro'
p450
sa(dp451
g5
S'December 2011'
p452
sg7
S'Ruxton'
p453
sg9
S'Documentary'
p454
sasg55
I2011
sa(dp455
g2
(lp456
(dp457
g5
S'January 2012'
p458
sg7
S'Romney'
p459
sg9
S'Documentary'
p460
sa(dp461
g5
S'February 2012'
p462
sg7
S'Romney'
p463
sg9
S'engineers'
p464
sa(dp465
g5
S'March 2012'
p466
sg7
S'Wagga'
p467
sg9
S'Wagga'
p468
sa(dp469
g5
S'April 2012'
p470
sg7
S'Slipper'
p471
sg9
S'Bahrain'
p472
sa(dp473
g5
S'May 2012'
p474
sg7
S'Thomson'
p475
sg9
S'Thomson'
p476
sa(dp477
g5
S'June 2012'
p478
sg7
S'Melinda'
p479
sg9
S'Caviar'
p480
sa(dp481
g5
S'July 2012'
p482
sg7
S'Barclays'
p483
sg9
S'Jurrah'
p484
sa(dp485
g5
S'August 2012'
p486
sg7
S'Ecuador'
p487
sg9
S'Grocon'
p488
sa(dp489
g5
S'September 2012'
p490
sg7
S'trawler'
p491
sg9
S'trawler'
p492
sa(dp493
g5
S'October 2012'
p494
sg7
S'Armstrong'
p495
sg9
S'Romney'
p496
sa(dp497
g5
S'November 2012'
p498
sg7
S'AWU'
p499
sg9
S'Nauru'
p500
sa(dp501
g5
S'December 2012'
p502
sg7
S'cliff'
p503
sg9
S'Documentary'
p504
sasg55
I2012
sa(dp505
g2
(lp506
(dp507
g5
S'January 2013'
p508
sg7
S'Peris'
p509
sg9
S'Documentary'
p510
sa(dp511
g5
S'February 2013'
p512
sg7
S'Pistorius'
p513
sg9
S'Obeid'
p514
sa(dp515
g5
S'March 2013'
p516
sg7
S'Cyprus'
p517
sg9
S'Cyprus'
p518
sa(dp519
g5
S'April 2013'
p520
sg7
S'Boston'
p521
sg9
S'Boston'
p522
sa(dp523
g5
S'May 2013'
p524
sg7
S'tornado'
p525
sg9
S'Waterhouse'
p526
sa(dp527
g5
S'June 2013'
p528
sg7
S'Snowden'
p529
sg9
S'Newcrest'
p530
sa(dp531
g5
S'July 2013'
p532
sg7
S'Morsi'
p533
sg9
S'Morsi'
p534
sa(dp535
g5
S'August 2013'
p536
sg7
S'chemical'
p537
sg9
S'Essendon'
p538
sa(dp539
g5
S'September 2013'
p540
sg7
S'Westgate'
p541
sg9
S'Mirabella'
p542
sa(dp543
g5
S'October 2013'
p544
sg7
S'shutdown'
p545
sg9
S'Mountains'
p546
sa(dp547
g5
S'November 2013'
p548
sg7
S'Haiyan'
p549
sg9
S'Haiyan'
p550
sa(dp551
g5
S'December 2013'
p552
sg7
S'Mandela'
p553
sg9
S'Documentary'
p554
sasg55
I2013
sa.