(lp0
(dp1
S'rows'
p2
(lp3
(dp4
S'title'
p5
S'January 2003'
p6
sS'am'
p7
S'inspectors'
p8
sS'pm'
p9
S'HIH'
p10
sa(dp11
g5
S'February 2003'
p12
sg7
S'Blix'
p13
sg9
S'Warne'
p14
sa(dp15
g5
S'March 2003'
p16
sg7
S'Basra'
p17
sg9
S'Baghdad'
p18
sa(dp19
g5
S'April 2003'
p20
sg7
S'SARS'
p21
sg9
S'Baghdad'
p22
sa(dp23
g5
S'May 2003'
p24
sg7
S'Hollingworth'
p25
sg9
S'Hollingworth'
p26
sa(dp27
g5
S'June 2003'
p28
sg7
S'Map'
p29
sg9
S'ONA'
p30
sa(dp31
g5
S'July 2003'
p32
sg7
S'Solomons'
p33
sg9
S'Solomon'
p34
sa(dp35
g5
S'August 2003'
p36
sg7
S'Hambali'
p37
sg9
S'Amrozi'
p38
sa(dp39
g5
S'September 2003'
p40
sg7
S'sheep'
p41
sg9
S'sheep'
p42
sa(dp43
g5
S'October 2003'
p44
sg7
S'Mahathir'
p45
sg9
S'Cormo'
p46
sa(dp47
g5
S'November 2003'
p48
sg7
S'Melville'
p49
sg9
S'Melville'
p50
sa(dp51
g5
S'December 2003'
p52
sg7
S'Saddam'
p53
sg9
S'Latham'
p54
sasS'year'
p55
I2003
sa(dp56
g2
(lp57
(dp58
g5
S'January 2004'
p59
sg7
S'Waugh'
p60
sg9
S'Hookes'
p61
sa(dp62
g5
S'February 2004'
p63
sg7
S'Latham'
p64
sg9
S'Latham'
p65
sa(dp66
g5
S'March 2004'
p67
sg7
S'Bulldogs'
p68
sg9
S'Bulldogs'
p69
sa(dp70
g5
S'April 2004'
p71
sg7
S'Fallujah'
p72
sg9
S'Flint'
p73
sa(dp74
g5
S'May 2004'
p75
sg7
S'Mitsubishi'
p76
sg9
S'Roche'
p77
sa(dp78
g5
S'June 2004'
p79
sg7
S'Roche'
p80
sg9
S'Roche'
p81
sa(dp82
g5
S'July 2004'
p83
sg7
S'Eadie'
p84
sg9
S'Latham'
p85
sa(dp86
g5
S'August 2004'
p87
sg7
S'Butler'
p88
sg9
S'Butler'
p89
sa(dp90
g5
S'September 2004'
p91
sg7
S'Latham'
p92
sg9
S'Latham'
p93
sa(dp94
g5
S'October 2004'
p95
sg7
S'Kerry'
p96
sg9
S'Latham'
p97
sa(dp98
g5
S'November 2004'
p99
sg7
S'Fallujah'
p100
sg9
S'Fallujah'
p101
sa(dp102
g5
S'December 2004'
p103
sg7
S'Hardie'
p104
sg9
S'Sounds'
p105
sasg55
I2004
sa(dp106
g2
(lp107
(dp108
g5
S'January 2005'
p109
sg7
S'tsunami'
p110
sg9
S'Aceh'
p111
sa(dp112
g5
S'February 2005'
p113
sg7
S'Rau'
p114
sg9
S'Rau'
p115
sa(dp116
g5
S'March 2005'
p117
sg7
S'Lightfoot'
p118
sg9
S'secession'
p119
sa(dp120
g5
S'April 2005'
p121
sg7
S'Pope'
p122
sg9
S'Pope'
p123
sa(dp124
g5
S'May 2005'
p125
sg7
S'Wood'
p126
sg9
S'Solon'
p127
sa(dp128
g5
S'June 2005'
p129
sg7
S'Wood'
p130
sg9
S'Tegan'
p131
sa(dp132
g5
S'July 2005'
p133
sg7
S'Vizard'
p134
sg9
S'Vizard'
p135
sa(dp136
g5
S'August 2005'
p137
sg7
S'Discovery'
p138
sg9
S'Editor'
p139
sa(dp140
g5
S'September 2005'
p141
sg7
S'Rita'
p142
sg9
S'Orleans'
p143
sa(dp144
g5
S'October 2005'
p145
sg7
S'flu'
p146
sg9
S'Nguyen'
p147
sa(dp148
g5
S'November 2005'
p149
sg7
S'Nguyen'
p150
sg9
S'Nguyen'
p151
sa(dp152
g5
S'December 2005'
p153
sg7
S'Nguyen'
p154
sg9
S'Nguyen'
p155
sasg55
I2005
sa(dp156
g2
(lp157
(dp158
g5
S'January 2006'
p159
sg7
S'Baghdatis'
p160
sg9
S'AWB'
p161
sa(dp162
g5
S'February 2006'
p163
sg7
S'AWB'
p164
sg9
S'AWB'
p165
sa(dp166
g5
S'March 2006'
p167
sg7
S'Games'
p168
sg9
S'AWB'
p169
sa(dp170
g5
S'April 2006'
p171
sg7
S'Kovco'
p172
sg9
S'Rini'
p173
sa(dp174
g5
S'May 2006'
p175
sg7
S'Beaconsfield'
p176
sg9
S'Beaconsfield'
p177
sa(dp178
g5
S'June 2006'
p179
sg7
S'Socceroos'
p180
sg9
S'Alkatiri'
p181
sa(dp182
g5
S'July 2006'
p183
sg7
S'Lebanon'
p184
sg9
S'Lebanon'
p185
sa(dp186
g5
S'August 2006'
p187
sg7
S'Lebanon'
p188
sg9
S'Lebanon'
p189
sa(dp190
g5
S'September 2006'
p191
sg7
S'Title'
p192
sg9
S'Vizard'
p193
sa(dp194
g5
S'October 2006'
p195
sg7
S'Hilali'
p196
sg9
S'Hilali'
p197
sa(dp198
g5
S'November 2006'
p199
sg7
S'Fijis'
p200
sg9
S'Brimble'
p201
sa(dp202
g5
S'December 2006'
p203
sg7
S'Fiji'
p204
sg9
S'Fijis'
p205
sasg55
I2006
sa(dp206
g2
(lp207
(dp208
g5
S'January 2007'
p209
sg7
S'Open'
p210
sg9
S'Chapman'
p211
sa(dp212
g5
S'February 2007'
p213
sg7
S'Jovicic'
p214
sg9
S'Woolrich'
p215
sa(dp216
g5
S'March 2007'
p217
sg7
S'Hicks'
p218
sg9
S'Santoro'
p219
sa(dp220
g5
S'April 2007'
p221
sg7
S'Billings'
p222
sg9
S'Woolrich'
p223
sa(dp224
g5
S'May 2007'
p225
sg7
S'volumes'
p226
sg9
S'Woolrich'
p227
sa(dp228
g5
S'June 2007'
p229
sg7
S'Mokbel'
p230
sg9
S'Byrne'
p231
sa(dp232
g5
S'July 2007'
p233
sg7
S'Haneef'
p234
sg9
S'Haneef'
p235
sa(dp236
g5
S'August 2007'
p237
sg7
S'Haneef'
p238
sg9
S'Woolrich'
p239
sa(dp240
g5
S'September 2007'
p241
sg7
S'APEC'
p242
sg9
S'APEC'
p243
sa(dp244
g5
S'October 2007'
p245
sg7
S'Uhlmann'
p246
sg9
S'Glanville'
p247
sa(dp248
g5
S'November 2007'
p249
sg7
S'pamphlet'
p250
sg9
S'Banton'
p251
sa(dp252
g5
S'December 2007'
p253
sg7
S'Bhutto'
p254
sg9
S'Glanville'
p255
sasg55
I2007
sa(dp256
g2
(lp257
(dp258
g5
S'January 2008'
p259
sg7
S'Suharto'
p260
sg9
S'Bucknor'
p261
sa(dp262
g5
S'February 2008'
p263
sg7
S'Kosovo'
p264
sg9
S'Kovco'
p265
sa(dp266
g5
S'March 2008'
p267
sg7
S'Tibetan'
p268
sg9
S'Glanville'
p269
sa(dp270
g5
S'April 2008'
p271
sg7
S'torch'
p272
sg9
S'torch'
p273
sa(dp274
g5
S'May 2008'
p275
sg7
S'Nargis'
p276
sg9
S'Nargis'
p277
sa(dp278
g5
S'June 2008'
p279
sg7
S'FuelWatch'
p280
sg9
S'Belinda'
p281
sa(dp282
g5
S'July 2008'
p283
sg7
S'Karadzic'
p284
sg9
S'WYD'
p285
sa(dp286
g5
S'August 2008'
p287
sg7
S'Georgian'
p288
sg9
S'Georgia'
p289
sa(dp290
g5
S'September 2008'
p291
sg7
S'Gustav'
p292
sg9
S'Palin'
p293
sa(dp294
g5
S'October 2008'
p295
sg7
S'Lapthorne'
p296
sg9
S'McCain'
p297
sa(dp298
g5
S'November 2008'
p299
sg7
S'Oberoi'
p300
sg9
S'Learning'
p301
sa(dp302
g5
S'December 2008'
p303
sg7
S'cholera'
p304
sg9
S'Lexi'
p305
sasg55
I2008
sa(dp306
g2
(lp307
(dp308
g5
S'January 2009'
p309
sg7
S'Dokic'
p310
sg9
S'inauguration'
p311
sa(dp312
g5
S'February 2009'
p313
sg7
S'stimulus'
p314
sg9
S'stimulus'
p315
sa(dp316
g5
S'March 2009'
p317
sg7
S'Bligh'
p318
sg9
S'Lannin'
p319
sa(dp320
g5
S'April 2009'
p321
sg7
S'swine'
p322
sg9
S'swine'
p323
sa(dp324
g5
S'May 2009'
p325
sg7
S'swine'
p326
sg9
S'swine'
p327
sa(dp328
g5
S'June 2009'
p329
sg7
S'swine'
p330
sg9
S''
p331
sa(dp332
g5
S'July 2009'
p333
sg7
S'Hu'
p334
sg9
S'Hu'
p335
sa(dp336
g5
S'August 2009'
p337
sg7
g331
sg9
g331
sa(dp338
g5
S'September 2009'
p339
sg7
S'Austrade'
p340
sg9
S'stimulus'
p341
sa(dp342
g5
S'October 2009'
p343
sg7
S'Samoa'
p344
sg9
S'Viking'
p345
sa(dp346
g5
S'November 2009'
p347
sg7
S'Viking'
p348
sg9
S'Oceanic'
p349
sa(dp350
g5
S'December 2009'
p351
sg7
S'Copenhagen'
p352
sg9
S'Copenhagen'
p353
sasg55
I2009
sa(dp354
g2
(lp355
(dp356
g5
S'January 2010'
p357
sg7
S'Haiti'
p358
sg9
S'Haiti'
p359
sa(dp360
g5
S'February 2010'
p361
sg7
S'insulation'
p362
sg9
S'insulation'
p363
sa(dp364
g5
S'March 2010'
p365
sg7
S'Stern'
p366
sg9
S'insulation'
p367
sa(dp368
g5
S'April 2010'
p369
sg7
S'Storm'
p370
sg9
S'Bain'
p371
sa(dp372
g5
S'May 2010'
p373
sg7
S'Shirt'
p374
sg9
S'Alle'
p375
sa(dp376
g5
S'June 2010'
p377
sg7
S'BP'
p378
sg9
S'flotilla'
p379
sa(dp380
g5
S'July 2010'
p381
sg7
S'Gillard'
p382
sg9
S'Alle'
p383
sa(dp384
g5
S'August 2010'
p385
sg7
S'independents'
p386
sg9
S'independents'
p387
sa(dp388
g5
S'September 2010'
p389
sg7
S'Games'
p390
sg9
S'Yuendumu'
p391
sa(dp392
g5
S'October 2010'
p393
sg7
S'Mary'
p394
sg9
S'Chilean'
p395
sa(dp396
g5
S'November 2010'
p397
sg7
S'Brumby'
p398
sg9
S'Pike'
p399
sa(dp400
g5
S'December 2010'
p401
sg7
S'Assange'
p402
sg9
S'WikiLeaks'
p403
sasg55
I2010
sa(dp404
g2
(lp405
(dp406
g5
S'January 2011'
p407
sg7
S'flood'
p408
sg9
S'flood'
p409
sa(dp410
g5
S'February 2011'
p411
sg7
S'Yasi'
p412
sg9
g331
sa(dp413
g5
S'March 2011'
p414
sg7
S'Libya'
p415
sg9
S'Gaddafi'
p416
sa(dp417
g5
S'April 2011'
p418
sg7
S'Ivory'
p419
sg9
g331
sa(dp420
g5
S'May 2011'
p421
sg7
S'Laden'
p422
sg9
S'Laden'
p423
sa(dp424
g5
S'June 2011'
p425
sg7
S'cattle'
p426
sg9
S'cattle'
p427
sa(dp428
g5
S'July 2011'
p429
sg7
S'hacking'
p430
sg9
S'carbon'
p431
sa(dp432
g5
S'August 2011'
p433
sg7
S'Tripoli'
p434
sg9
S'Gaddafi'
p435
sa(dp436
g5
S'September 2011'
p437
sg7
S'Cappo'
p438
sg9
S'Ganesh'
p439
sa(dp440
g5
S'October 2011'
p441
sg7
S'Gaddafi'
p442
sg9
S'CHOGM'
p443
sa(dp444
g5
S'November 2011'
p445
sg7
S'Roebuck'
p446
sg9
S'euro'
p447
sa(dp448
g5
S'December 2011'
p449
sg7
S'il'
p450
sg9
S'Documentary'
p451
sasg55
I2011
sa(dp452
g2
(lp453
(dp454
g5
S'January 2012'
p455
sg7
S'Romney'
p456
sg9
S'Documentary'
p457
sa(dp458
g5
S'February 2012'
p459
sg7
S'Romney'
p460
sg9
S'Gillard'
p461
sa(dp462
g5
S'March 2012'
p463
sg7
S'Wagga'
p464
sg9
S'Wagga'
p465
sa(dp466
g5
S'April 2012'
p467
sg7
S'Slipper'
p468
sg9
S'Bahrain'
p469
sa(dp470
g5
S'May 2012'
p471
sg7
S'Thomson'
p472
sg9
S'Thomson'
p473
sa(dp474
g5
S'June 2012'
p475
sg7
S'Rinehart'
p476
sg9
S'Caviar'
p477
sa(dp478
g5
S'July 2012'
p479
sg7
S'Barclays'
p480
sg9
S'Jurrah'
p481
sa(dp482
g5
S'August 2012'
p483
sg7
S'Ecuador'
p484
sg9
S'Samsung'
p485
sa(dp486
g5
S'September 2012'
p487
sg7
S'trawler'
p488
sg9
S'trawler'
p489
sa(dp490
g5
S'October 2012'
p491
sg7
S'Armstrong'
p492
sg9
S'Laudisio'
p493
sa(dp494
g5
S'November 2012'
p495
sg7
S'AWU'
p496
sg9
S'Nauru'
p497
sa(dp498
g5
S'December 2012'
p499
sg7
S'prank'
p500
sg9
S'Documentary'
p501
sasg55
I2012
sa(dp502
g2
(lp503
(dp504
g5
S'January 2013'
p505
sg7
S'Peris'
p506
sg9
S'Documentary'
p507
sa(dp508
g5
S'February 2013'
p509
sg7
S'Zygier'
p510
sg9
S'Obeid'
p511
sa(dp512
g5
S'March 2013'
p513
sg7
S'Cyprus'
p514
sg9
S'Cyprus'
p515
sa(dp516
g5
S'April 2013'
p517
sg7
S'Boston'
p518
sg9
S'Boston'
p519
sa(dp520
g5
S'May 2013'
p521
sg7
S'tornado'
p522
sg9
S'Waterhouse'
p523
sa(dp524
g5
S'June 2013'
p525
sg7
S'Snowden'
p526
sg9
S'Gillard'
p527
sa(dp528
g5
S'July 2013'
p529
sg7
S'Morsi'
p530
sg9
S'Morsi'
p531
sa(dp532
g5
S'August 2013'
p533
sg7
S'Xilai'
p534
sg9
S'Hird'
p535
sa(dp536
g5
S'September 2013'
p537
sg7
S'Syria'
p538
sg9
S'Larkins'
p539
sa(dp540
g5
S'October 2013'
p541
sg7
S'shutdown'
p542
sg9
S'YMCA'
p543
sa(dp544
g5
S'November 2013'
p545
sg7
S'Haiyan'
p546
sg9
S'Haiyan'
p547
sa(dp548
g5
S'December 2013'
p549
sg7
S'Holden'
p550
sg9
S'Holden'
p551
sasg55
I2013
sa.